target datalayout = "e-m:e-p270:32:32-p271:32:32-p272:64:64-i64:64-i128:128-f80:128-n8:16:32:64-S128"
target triple = "x86_64-unknown-linux-gnu"

%struct.Token = type { i32, ptr, i64, x86_fp80, ptr, i32, ptr, ptr, ptr, ptr, i32, i32, i8, i8, ptr, ptr }
%struct.Type = type { i32, i32, i32, i8, i8, ptr, ptr, ptr, ptr, i32, ptr, ptr, ptr, i8, i8, ptr, ptr, i8, ptr }

@.str.58 = private unnamed_addr constant [4 x i8] c"...\00", align 1
@.str.59 = private unnamed_addr constant [2 x i8] c"]\00", align 1
@.str.72 = private unnamed_addr constant [44 x i8] c"array designator index exceeds array bounds\00", align 1
@.str.73 = private unnamed_addr constant [41 x i8] c"array designator range [%d, %d] is empty\00", align 1

; Function Attrs: nounwind uwtable
define internal i64 @eval(ptr noundef %node) #0 {
entry:
  %node.addr = alloca ptr, align 8
  store ptr %node, ptr %node.addr, align 8
  %0 = load ptr, ptr %node.addr, align 8
  %call = call i64 @eval2(ptr noundef %0, ptr noundef null)
  ret i64 %call
}

; Function Attrs: nounwind uwtable
define dso_local i64 @const_expr(ptr noundef %rest, ptr noundef %tok) #0 {
entry:
  %rest.addr = alloca ptr, align 8
  %tok.addr = alloca ptr, align 8
  %node = alloca ptr, align 8
  store ptr %rest, ptr %rest.addr, align 8
  store ptr %tok, ptr %tok.addr, align 8
  %0 = load ptr, ptr %rest.addr, align 8
  %1 = load ptr, ptr %tok.addr, align 8
  %call = call ptr @conditional(ptr noundef %0, ptr noundef %1)
  store ptr %call, ptr %node, align 8
  %2 = load ptr, ptr %node, align 8
  %call1 = call i64 @eval(ptr noundef %2)
  ret i64 %call1
}

; Function Attrs: nounwind uwtable
define internal void @array_designator(ptr noundef %rest, ptr noundef %tok, ptr noundef %ty, ptr noundef %begin, ptr noundef %end) #0 {
entry:
  %rest.addr = alloca ptr, align 8
  %tok.addr = alloca ptr, align 8
  %ty.addr = alloca ptr, align 8
  %begin.addr = alloca ptr, align 8
  %end.addr = alloca ptr, align 8
  store ptr %rest, ptr %rest.addr, align 8
  store ptr %tok, ptr %tok.addr, align 8
  store ptr %ty, ptr %ty.addr, align 8
  store ptr %begin, ptr %begin.addr, align 8
  store ptr %end, ptr %end.addr, align 8
  %0 = load ptr, ptr %tok.addr, align 8
  %next = getelementptr inbounds %struct.Token, ptr %0, i32 0, i32 1
  %1 = load ptr, ptr %next, align 8
  %call = call i64 @const_expr(ptr noundef %tok.addr, ptr noundef %1)
  %conv = trunc i64 %call to i32
  %2 = load ptr, ptr %begin.addr, align 8
  store i32 %conv, ptr %2, align 4
  %3 = load ptr, ptr %begin.addr, align 8
  %4 = load i32, ptr %3, align 4
  %5 = load ptr, ptr %ty.addr, align 8
  %array_len = getelementptr inbounds %struct.Type, ptr %5, i32 0, i32 9
  %6 = load i32, ptr %array_len, align 8
  %cmp = icmp sge i32 %4, %6
  br i1 %cmp, label %if.then, label %if.end

if.then:                                          ; preds = %entry
  %7 = load ptr, ptr %tok.addr, align 8
  call void (ptr, ptr, ...) @error_tok(ptr noundef %7, ptr noundef @.str.72) #9
  unreachable

if.end:                                           ; preds = %entry
  %8 = load ptr, ptr %tok.addr, align 8
  %call2 = call zeroext i1 @equal(ptr noundef %8, ptr noundef @.str.58)
  br i1 %call2, label %if.then3, label %if.else

if.then3:                                         ; preds = %if.end
  %9 = load ptr, ptr %tok.addr, align 8
  %next4 = getelementptr inbounds %struct.Token, ptr %9, i32 0, i32 1
  %10 = load ptr, ptr %next4, align 8
  %call5 = call i64 @const_expr(ptr noundef %tok.addr, ptr noundef %10)
  %conv6 = trunc i64 %call5 to i32
  %11 = load ptr, ptr %end.addr, align 8
  store i32 %conv6, ptr %11, align 4
  %12 = load ptr, ptr %end.addr, align 8
  %13 = load i32, ptr %12, align 4
  %14 = load ptr, ptr %ty.addr, align 8
  %array_len7 = getelementptr inbounds %struct.Type, ptr %14, i32 0, i32 9
  %15 = load i32, ptr %array_len7, align 8
  %cmp8 = icmp sge i32 %13, %15
  br i1 %cmp8, label %if.then10, label %if.end11

if.then10:                                        ; preds = %if.then3
  %16 = load ptr, ptr %tok.addr, align 8
  call void (ptr, ptr, ...) @error_tok(ptr noundef %16, ptr noundef @.str.72) #9
  unreachable

if.end11:                                         ; preds = %if.then3
  %17 = load ptr, ptr %end.addr, align 8
  %18 = load i32, ptr %17, align 4
  %19 = load ptr, ptr %begin.addr, align 8
  %20 = load i32, ptr %19, align 4
  %cmp12 = icmp slt i32 %18, %20
  br i1 %cmp12, label %if.then14, label %if.end15

if.then14:                                        ; preds = %if.end11
  %21 = load ptr, ptr %tok.addr, align 8
  %22 = load ptr, ptr %begin.addr, align 8
  %23 = load i32, ptr %22, align 4
  %24 = load ptr, ptr %end.addr, align 8
  %25 = load i32, ptr %24, align 4
  call void (ptr, ptr, ...) @error_tok(ptr noundef %21, ptr noundef @.str.73, i32 noundef %23, i32 noundef %25) #9
  unreachable

if.end15:                                         ; preds = %if.end11
  br label %if.end16

if.else:                                          ; preds = %if.end
  %26 = load ptr, ptr %begin.addr, align 8
  %27 = load i32, ptr %26, align 4
  %28 = load ptr, ptr %end.addr, align 8
  store i32 %27, ptr %28, align 4
  br label %if.end16

if.end16:                                         ; preds = %if.else, %if.end15
  %29 = load ptr, ptr %tok.addr, align 8
  %call17 = call ptr @skip(ptr noundef %29, ptr noundef @.str.59)
  %30 = load ptr, ptr %rest.addr, align 8
  store ptr %call17, ptr %30, align 8
  ret void
}