; Function Attrs: nounwind uwtable
define internal fastcc void @array_designator(ptr nocapture noundef writeonly %rest, ptr noundef %tok, ptr nocapture noundef readonly %ty, ptr nocapture noundef %begin, ptr nocapture noundef writeonly %end) unnamed_addr #0 {
entry:
  %tok.addr = alloca ptr, align 8
  store ptr %tok, ptr %tok.addr, align 8
  %next = getelementptr inbounds %struct.Token, ptr %tok, i64 0, i32 1
  %0 = load ptr, ptr %next, align 8
  %call.i = call fastcc ptr @conditional(ptr noundef nonnull %tok.addr, ptr noundef %0)
  %call.i.i = call fastcc i64 @eval2(ptr noundef %call.i, ptr noundef null)
  %conv = trunc i64 %call.i.i to i32
  store i32 %conv, ptr %begin, align 4
  %array_len = getelementptr inbounds %struct.Type, ptr %ty, i64 0, i32 9
  %1 = load i32, ptr %array_len, align 8
  %cmp.not = icmp sgt i32 %1, %conv
  %2 = load ptr, ptr %tok.addr, align 8
  br i1 %cmp.not, label %if.end, label %if.then

if.then:                                          ; preds = %entry
  call void (ptr, ptr, ...) @error_tok(ptr noundef %2, ptr noundef nonnull @.str.72) #16
  unreachable

if.end:                                           ; preds = %entry
  %call2 = call zeroext i1 @equal(ptr noundef %2, ptr noundef nonnull @.str.58) #13
  br i1 %call2, label %if.then3, label %if.else

if.then3:                                         ; preds = %if.end
  %3 = load ptr, ptr %tok.addr, align 8
  %next4 = getelementptr inbounds %struct.Token, ptr %3, i64 0, i32 1
  %4 = load ptr, ptr %next4, align 8
  %call.i10 = call fastcc ptr @conditional(ptr noundef nonnull %tok.addr, ptr noundef %4)
  %call.i.i11 = call fastcc i64 @eval2(ptr noundef %call.i10, ptr noundef null)
  %conv6 = trunc i64 %call.i.i11 to i32
  store i32 %conv6, ptr %end, align 4
  %5 = load i32, ptr %array_len, align 8
  %cmp8.not = icmp sgt i32 %5, %conv6
  br i1 %cmp8.not, label %if.end11, label %if.then10

if.then10:                                        ; preds = %if.then3
  %6 = load ptr, ptr %tok.addr, align 8
  call void (ptr, ptr, ...) @error_tok(ptr noundef %6, ptr noundef nonnull @.str.72) #16
  unreachable

if.end11:                                         ; preds = %if.then3
  %7 = load i32, ptr %begin, align 4
  %cmp12 = icmp sgt i32 %7, %conv6
  br i1 %cmp12, label %if.then14, label %if.end16

if.then14:                                        ; preds = %if.end11
  %8 = load ptr, ptr %tok.addr, align 8
  call void (ptr, ptr, ...) @error_tok(ptr noundef %8, ptr noundef nonnull @.str.73, i32 noundef %7, i32 noundef %conv6) #16
  unreachable

if.else:                                          ; preds = %if.end
  %9 = load i32, ptr %begin, align 4
  store i32 %9, ptr %end, align 4
  br label %if.end16

if.end16:                                         ; preds = %if.end11, %if.else
  %10 = load ptr, ptr %tok.addr, align 8
  %call17 = call ptr @skip(ptr noundef %10, ptr noundef nonnull @.str.59) #13
  store ptr %call17, ptr %rest, align 8
  ret void
}